#include <math.h>
#include <stdio.h>
#include <stdlib.h>
#include <string.h>


int main()
{
	int a,b,c;
	int sum=0;
	int sz[1000]={0};
	int i,j,k;
	char s1[10000];
	gets(s1);
	for(i=0;i<strlen(s1);i++)
	{
		if(i==0)
		{

			for(j=0;s1[i+j]!=' '&&s1[i+j]!='\0';j++)
			{
				sz[sum]++;
			}
			sum++;
		}
		else
		{
			if(s1[i]!=' '&&s1[i-1]==' ')
			{

				for(j=0;s1[i+j]!=' '&&s1[i+j]!='\0';j++)
				{
					sz[sum]++;
				}
				sum++;
			}
		}
	}
	
	for(i=0;i<sum;i++)
	{
		if(i!=0)
		{
			printf(",");
		}
		printf("%d",sz[i]);
	}






		return 0;
}




