; ModuleID = '28/1949.c'
source_filename = "28/1949.c"
target datalayout = "e-m:e-p270:32:32-p271:32:32-p272:64:64-i64:64-f80:128-n8:16:32:64-S128"
target triple = "x86_64-pc-linux-gnu"

@.str = private unnamed_addr constant [2 x i8] c",\00", align 1
@.str.1 = private unnamed_addr constant [3 x i8] c"%d\00", align 1

; Function Attrs: noinline nounwind uwtable
define dso_local i32 @main() #0 {
  %1 = alloca i32, align 4
  %2 = alloca i32, align 4
  %3 = alloca i32, align 4
  %4 = alloca i32, align 4
  %5 = alloca i32, align 4
  %6 = alloca [1000 x i32], align 16
  %7 = alloca i32, align 4
  %8 = alloca i32, align 4
  %9 = alloca i32, align 4
  %10 = alloca [10000 x i8], align 16
  store i32 0, i32* %1, align 4
  store i32 0, i32* %5, align 4
  %11 = bitcast [1000 x i32]* %6 to i8*
  call void @llvm.memset.p0i8.i64(i8* align 16 %11, i8 0, i64 4000, i1 false)
  %12 = getelementptr inbounds [10000 x i8], [10000 x i8]* %10, i64 0, i64 0
  %13 = call i32 (i8*, ...) bitcast (i32 (...)* @gets to i32 (i8*, ...)*)(i8* %12)
  store i32 0, i32* %7, align 4
  br label %14

14:                                               ; preds = %106, %0
  %15 = load i32, i32* %7, align 4
  %16 = sext i32 %15 to i64
  %17 = getelementptr inbounds [10000 x i8], [10000 x i8]* %10, i64 0, i64 0
  %18 = call i64 @strlen(i8* %17) #4
  %19 = icmp ult i64 %16, %18
  br i1 %19, label %20, label %109

20:                                               ; preds = %14
  %21 = load i32, i32* %7, align 4
  %22 = icmp eq i32 %21, 0
  br i1 %22, label %23, label %56

23:                                               ; preds = %20
  store i32 0, i32* %8, align 4
  br label %24

24:                                               ; preds = %50, %23
  %25 = load i32, i32* %7, align 4
  %26 = load i32, i32* %8, align 4
  %27 = add nsw i32 %25, %26
  %28 = sext i32 %27 to i64
  %29 = getelementptr inbounds [10000 x i8], [10000 x i8]* %10, i64 0, i64 %28
  %30 = load i8, i8* %29, align 1
  %31 = sext i8 %30 to i32
  %32 = icmp ne i32 %31, 32
  br i1 %32, label %33, label %42

33:                                               ; preds = %24
  %34 = load i32, i32* %7, align 4
  %35 = load i32, i32* %8, align 4
  %36 = add nsw i32 %34, %35
  %37 = sext i32 %36 to i64
  %38 = getelementptr inbounds [10000 x i8], [10000 x i8]* %10, i64 0, i64 %37
  %39 = load i8, i8* %38, align 1
  %40 = sext i8 %39 to i32
  %41 = icmp ne i32 %40, 0
  br label %42

42:                                               ; preds = %33, %24
  %43 = phi i1 [ false, %24 ], [ %41, %33 ]
  br i1 %43, label %44, label %53

44:                                               ; preds = %42
  %45 = load i32, i32* %5, align 4
  %46 = sext i32 %45 to i64
  %47 = getelementptr inbounds [1000 x i32], [1000 x i32]* %6, i64 0, i64 %46
  %48 = load i32, i32* %47, align 4
  %49 = add nsw i32 %48, 1
  store i32 %49, i32* %47, align 4
  br label %50

50:                                               ; preds = %44
  %51 = load i32, i32* %8, align 4
  %52 = add nsw i32 %51, 1
  store i32 %52, i32* %8, align 4
  br label %24

53:                                               ; preds = %42
  %54 = load i32, i32* %5, align 4
  %55 = add nsw i32 %54, 1
  store i32 %55, i32* %5, align 4
  br label %105

56:                                               ; preds = %20
  %57 = load i32, i32* %7, align 4
  %58 = sext i32 %57 to i64
  %59 = getelementptr inbounds [10000 x i8], [10000 x i8]* %10, i64 0, i64 %58
  %60 = load i8, i8* %59, align 1
  %61 = sext i8 %60 to i32
  %62 = icmp ne i32 %61, 32
  br i1 %62, label %63, label %104

63:                                               ; preds = %56
  %64 = load i32, i32* %7, align 4
  %65 = sub nsw i32 %64, 1
  %66 = sext i32 %65 to i64
  %67 = getelementptr inbounds [10000 x i8], [10000 x i8]* %10, i64 0, i64 %66
  %68 = load i8, i8* %67, align 1
  %69 = sext i8 %68 to i32
  %70 = icmp eq i32 %69, 32
  br i1 %70, label %71, label %104

71:                                               ; preds = %63
  store i32 0, i32* %8, align 4
  br label %72

72:                                               ; preds = %98, %71
  %73 = load i32, i32* %7, align 4
  %74 = load i32, i32* %8, align 4
  %75 = add nsw i32 %73, %74
  %76 = sext i32 %75 to i64
  %77 = getelementptr inbounds [10000 x i8], [10000 x i8]* %10, i64 0, i64 %76
  %78 = load i8, i8* %77, align 1
  %79 = sext i8 %78 to i32
  %80 = icmp ne i32 %79, 32
  br i1 %80, label %81, label %90

81:                                               ; preds = %72
  %82 = load i32, i32* %7, align 4
  %83 = load i32, i32* %8, align 4
  %84 = add nsw i32 %82, %83
  %85 = sext i32 %84 to i64
  %86 = getelementptr inbounds [10000 x i8], [10000 x i8]* %10, i64 0, i64 %85
  %87 = load i8, i8* %86, align 1
  %88 = sext i8 %87 to i32
  %89 = icmp ne i32 %88, 0
  br label %90

90:                                               ; preds = %81, %72
  %91 = phi i1 [ false, %72 ], [ %89, %81 ]
  br i1 %91, label %92, label %101

92:                                               ; preds = %90
  %93 = load i32, i32* %5, align 4
  %94 = sext i32 %93 to i64
  %95 = getelementptr inbounds [1000 x i32], [1000 x i32]* %6, i64 0, i64 %94
  %96 = load i32, i32* %95, align 4
  %97 = add nsw i32 %96, 1
  store i32 %97, i32* %95, align 4
  br label %98

98:                                               ; preds = %92
  %99 = load i32, i32* %8, align 4
  %100 = add nsw i32 %99, 1
  store i32 %100, i32* %8, align 4
  br label %72

101:                                              ; preds = %90
  %102 = load i32, i32* %5, align 4
  %103 = add nsw i32 %102, 1
  store i32 %103, i32* %5, align 4
  br label %104

104:                                              ; preds = %101, %63, %56
  br label %105

105:                                              ; preds = %104, %53
  br label %106

106:                                              ; preds = %105
  %107 = load i32, i32* %7, align 4
  %108 = add nsw i32 %107, 1
  store i32 %108, i32* %7, align 4
  br label %14

109:                                              ; preds = %14
  store i32 0, i32* %7, align 4
  br label %110

110:                                              ; preds = %125, %109
  %111 = load i32, i32* %7, align 4
  %112 = load i32, i32* %5, align 4
  %113 = icmp slt i32 %111, %112
  br i1 %113, label %114, label %128

114:                                              ; preds = %110
  %115 = load i32, i32* %7, align 4
  %116 = icmp ne i32 %115, 0
  br i1 %116, label %117, label %119

117:                                              ; preds = %114
  %118 = call i32 (i8*, ...) @printf(i8* getelementptr inbounds ([2 x i8], [2 x i8]* @.str, i64 0, i64 0))
  br label %119

119:                                              ; preds = %117, %114
  %120 = load i32, i32* %7, align 4
  %121 = sext i32 %120 to i64
  %122 = getelementptr inbounds [1000 x i32], [1000 x i32]* %6, i64 0, i64 %121
  %123 = load i32, i32* %122, align 4
  %124 = call i32 (i8*, ...) @printf(i8* getelementptr inbounds ([3 x i8], [3 x i8]* @.str.1, i64 0, i64 0), i32 %123)
  br label %125

125:                                              ; preds = %119
  %126 = load i32, i32* %7, align 4
  %127 = add nsw i32 %126, 1
  store i32 %127, i32* %7, align 4
  br label %110

128:                                              ; preds = %110
  ret i32 0
}

; Function Attrs: argmemonly nounwind willreturn
declare void @llvm.memset.p0i8.i64(i8* nocapture writeonly, i8, i64, i1 immarg) #1

declare dso_local i32 @gets(...) #2

; Function Attrs: nounwind readonly
declare dso_local i64 @strlen(i8*) #3

declare dso_local i32 @printf(i8*, ...) #2


!llvm.module.flags = !{!0}
!llvm.ident = !{!1}

!0 = !{i32 1, !"wchar_size", i32 4}
!1 = !{!"clang version 10.0.0-4ubuntu1 "}
